target datalayout = "e-m:e-p270:32:32-p271:32:32-p272:64:64-i64:64-i128:128-f80:128-n8:16:32:64-S128"
target triple = "x86_64-pc-linux-gnu"

%struct.LZ4IO_prefs_s = type { i32, i32, i32, i32, i64, i32, i32, i32, i32, i32, i32, i32, ptr, i32, i32 }
%struct.dRess_t = type { ptr, i64, ptr, i64, ptr, ptr, ptr, i64 }

@g_displayLevel = internal global i32 0, align 4
@stderr = external global ptr, align 8
@.str = private unnamed_addr constant [12 x i8] c"Error %i : \00", align 1
@.str.2 = private unnamed_addr constant [3 x i8] c" \0A\00", align 1
@.str.15 = private unnamed_addr constant [22 x i8] c"Remove error : %s: %s\00", align 1
@.str.16 = private unnamed_addr constant [7 x i8] c"\0D%79s\0D\00", align 1
@.str.17 = private unnamed_addr constant [1 x i8] zeroinitializer, align 1
@.str.84 = private unnamed_addr constant [32 x i8] c"%-30.30s : decoded %llu bytes \0A\00", align 1

; Function Attrs: nounwind uwtable
define internal i32 @LZ4IO_decompressSrcFile(ptr noundef %0, ptr noundef byval(%struct.dRess_t) align 8 %1, ptr noundef %2, ptr noundef %3, ptr noundef %4) #0 {
  %6 = alloca i32, align 4
  %7 = alloca ptr, align 8
  %8 = alloca ptr, align 8
  %9 = alloca ptr, align 8
  %10 = alloca ptr, align 8
  %11 = alloca ptr, align 8
  %12 = alloca i64, align 8
  %13 = alloca i32, align 4
  %14 = alloca ptr, align 8
  %15 = alloca i32, align 4
  %16 = alloca i64, align 8
  store ptr %0, ptr %7, align 8, !tbaa !39
  store ptr %2, ptr %8, align 8, !tbaa !31
  store ptr %3, ptr %9, align 8, !tbaa !31
  store ptr %4, ptr %10, align 8, !tbaa !4
  call void @llvm.lifetime.start.p0(i64 8, ptr %11) #13
  %17 = getelementptr inbounds nuw %struct.dRess_t, ptr %1, i32 0, i32 4
  %18 = load ptr, ptr %17, align 8, !tbaa !139
  store ptr %18, ptr %11, align 8, !tbaa !11
  call void @llvm.lifetime.start.p0(i64 8, ptr %12) #13
  store i64 0, ptr %12, align 8, !tbaa !37
  call void @llvm.lifetime.start.p0(i64 4, ptr %13) #13
  store i32 0, ptr %13, align 4, !tbaa !9
  call void @llvm.lifetime.start.p0(i64 8, ptr %14) #13
  %19 = load ptr, ptr %8, align 8, !tbaa !31
  %20 = call ptr @LZ4IO_openSrcFile(ptr noundef %19)
  store ptr %20, ptr %14, align 8, !tbaa !11
  %21 = load ptr, ptr %14, align 8, !tbaa !11
  %22 = icmp eq ptr %21, null
  br i1 %22, label %23, label %24

23:                                               ; preds = %5
  store i32 1, ptr %6, align 4
  store i32 1, ptr %15, align 4
  br label %128

24:                                               ; preds = %5
  br label %25

25:                                               ; preds = %43, %24
  call void @llvm.lifetime.start.p0(i64 8, ptr %16) #13
  %26 = load ptr, ptr %14, align 8, !tbaa !11
  %27 = load ptr, ptr %11, align 8, !tbaa !11
  %28 = load ptr, ptr %10, align 8, !tbaa !4
  %29 = call i64 @selectDecoder(ptr noundef byval(%struct.dRess_t) align 8 %1, ptr noundef %26, ptr noundef %27, ptr noundef %28)
  store i64 %29, ptr %16, align 8, !tbaa !37
  %30 = load i64, ptr %16, align 8, !tbaa !37
  %31 = icmp eq i64 %30, -1
  br i1 %31, label %32, label %33

32:                                               ; preds = %25
  store i32 2, ptr %15, align 4
  br label %41

33:                                               ; preds = %25
  %34 = load i64, ptr %16, align 8, !tbaa !37
  %35 = icmp eq i64 %34, -2
  br i1 %35, label %36, label %37

36:                                               ; preds = %33
  store i32 1, ptr %13, align 4, !tbaa !9
  store i32 2, ptr %15, align 4
  br label %41

37:                                               ; preds = %33
  %38 = load i64, ptr %16, align 8, !tbaa !37
  %39 = load i64, ptr %12, align 8, !tbaa !37
  %40 = add i64 %39, %38
  store i64 %40, ptr %12, align 8, !tbaa !37
  store i32 0, ptr %15, align 4
  br label %41

41:                                               ; preds = %37, %36, %32
  call void @llvm.lifetime.end.p0(i64 8, ptr %16) #13
  %42 = load i32, ptr %15, align 4
  switch i32 %42, label %130 [
    i32 0, label %43
    i32 2, label %44
  ]

43:                                               ; preds = %41
  br label %25

44:                                               ; preds = %41
  %45 = load ptr, ptr %14, align 8, !tbaa !11
  %46 = call i32 @fclose(ptr noundef %45)
  %47 = load ptr, ptr %10, align 8, !tbaa !4
  %48 = getelementptr inbounds nuw %struct.LZ4IO_prefs_s, ptr %47, i32 0, i32 13
  %49 = load i32, ptr %48, align 8, !tbaa !29
  %50 = icmp ne i32 %49, 0
  br i1 %50, label %51, label %98

51:                                               ; preds = %44
  %52 = load ptr, ptr %8, align 8, !tbaa !31
  %53 = call i32 @remove(ptr noundef %52) #13
  %54 = icmp ne i32 %53, 0
  br i1 %54, label %55, label %97

55:                                               ; preds = %51
  %56 = load i32, ptr @g_displayLevel, align 4, !tbaa !9
  %57 = icmp sge i32 %56, 1
  br i1 %57, label %58, label %67

58:                                               ; preds = %55
  %59 = load ptr, ptr @stderr, align 8, !tbaa !11
  %60 = call i32 (ptr, ptr, ...) @fprintf(ptr noundef %59, ptr noundef @.str, i32 noundef 45) #13
  %61 = load i32, ptr @g_displayLevel, align 4, !tbaa !9
  %62 = icmp sge i32 %61, 4
  br i1 %62, label %63, label %66

63:                                               ; preds = %58
  %64 = load ptr, ptr @stderr, align 8, !tbaa !11
  %65 = call i32 @fflush(ptr noundef %64)
  br label %66

66:                                               ; preds = %63, %58
  br label %67

67:                                               ; preds = %66, %55
  %68 = load i32, ptr @g_displayLevel, align 4, !tbaa !9
  %69 = icmp sge i32 %68, 1
  br i1 %69, label %70, label %83

70:                                               ; preds = %67
  %71 = load ptr, ptr @stderr, align 8, !tbaa !11
  %72 = load ptr, ptr %8, align 8, !tbaa !31
  %73 = call ptr @__errno_location() #17
  %74 = load i32, ptr %73, align 4, !tbaa !9
  %75 = call ptr @strerror(i32 noundef %74) #13
  %76 = call i32 (ptr, ptr, ...) @fprintf(ptr noundef %71, ptr noundef @.str.15, ptr noundef %72, ptr noundef %75) #13
  %77 = load i32, ptr @g_displayLevel, align 4, !tbaa !9
  %78 = icmp sge i32 %77, 4
  br i1 %78, label %79, label %82

79:                                               ; preds = %70
  %80 = load ptr, ptr @stderr, align 8, !tbaa !11
  %81 = call i32 @fflush(ptr noundef %80)
  br label %82

82:                                               ; preds = %79, %70
  br label %83

83:                                               ; preds = %82, %67
  %84 = load i32, ptr @g_displayLevel, align 4, !tbaa !9
  %85 = icmp sge i32 %84, 1
  br i1 %85, label %86, label %95

86:                                               ; preds = %83
  %87 = load ptr, ptr @stderr, align 8, !tbaa !11
  %88 = call i32 (ptr, ptr, ...) @fprintf(ptr noundef %87, ptr noundef @.str.2) #13
  %89 = load i32, ptr @g_displayLevel, align 4, !tbaa !9
  %90 = icmp sge i32 %89, 4
  br i1 %90, label %91, label %94

91:                                               ; preds = %86
  %92 = load ptr, ptr @stderr, align 8, !tbaa !11
  %93 = call i32 @fflush(ptr noundef %92)
  br label %94

94:                                               ; preds = %91, %86
  br label %95

95:                                               ; preds = %94, %83
  %96 = call i32 @fflush(ptr noundef null)
  call void @exit(i32 noundef 45) #15
  unreachable

97:                                               ; preds = %51
  br label %98

98:                                               ; preds = %97, %44
  %99 = load i32, ptr @g_displayLevel, align 4, !tbaa !9
  %100 = icmp sge i32 %99, 2
  br i1 %100, label %101, label %110

101:                                              ; preds = %98
  %102 = load ptr, ptr @stderr, align 8, !tbaa !11
  %103 = call i32 (ptr, ptr, ...) @fprintf(ptr noundef %102, ptr noundef @.str.16, ptr noundef @.str.17) #13
  %104 = load i32, ptr @g_displayLevel, align 4, !tbaa !9
  %105 = icmp sge i32 %104, 4
  br i1 %105, label %106, label %109

106:                                              ; preds = %101
  %107 = load ptr, ptr @stderr, align 8, !tbaa !11
  %108 = call i32 @fflush(ptr noundef %107)
  br label %109

109:                                              ; preds = %106, %101
  br label %110

110:                                              ; preds = %109, %98
  %111 = load i32, ptr @g_displayLevel, align 4, !tbaa !9
  %112 = icmp sge i32 %111, 2
  br i1 %112, label %113, label %124

113:                                              ; preds = %110
  %114 = load ptr, ptr @stderr, align 8, !tbaa !11
  %115 = load ptr, ptr %8, align 8, !tbaa !31
  %116 = load i64, ptr %12, align 8, !tbaa !37
  %117 = call i32 (ptr, ptr, ...) @fprintf(ptr noundef %114, ptr noundef @.str.84, ptr noundef %115, i64 noundef %116) #13
  %118 = load i32, ptr @g_displayLevel, align 4, !tbaa !9
  %119 = icmp sge i32 %118, 4
  br i1 %119, label %120, label %123

120:                                              ; preds = %113
  %121 = load ptr, ptr @stderr, align 8, !tbaa !11
  %122 = call i32 @fflush(ptr noundef %121)
  br label %123

123:                                              ; preds = %120, %113
  br label %124

124:                                              ; preds = %123, %110
  %125 = load i64, ptr %12, align 8, !tbaa !37
  %126 = load ptr, ptr %7, align 8, !tbaa !39
  store i64 %125, ptr %126, align 8, !tbaa !37
  %127 = load i32, ptr %13, align 4, !tbaa !9
  store i32 %127, ptr %6, align 4
  store i32 1, ptr %15, align 4
  br label %128

128:                                              ; preds = %124, %23
  call void @llvm.lifetime.end.p0(i64 8, ptr %14) #13
  call void @llvm.lifetime.end.p0(i64 4, ptr %13) #13
  call void @llvm.lifetime.end.p0(i64 8, ptr %12) #13
  call void @llvm.lifetime.end.p0(i64 8, ptr %11) #13
  %129 = load i32, ptr %6, align 4
  ret i32 %129

130:                                              ; preds = %41
  unreachable
}