; Function Attrs: nounwind uwtable
define internal fastcc range(i32 0, 2) i32 @LZ4IO_decompressSrcFile(ptr noundef nonnull writeonly captures(none) %0, ptr noundef readonly byval(%struct.dRess_t) align 8 captures(none) %1, ptr noundef %2, ptr noundef readonly captures(none) %3) unnamed_addr #11 {
  %5 = getelementptr inbounds nuw i8, ptr %1, i64 32
  %6 = load ptr, ptr %5, align 8, !tbaa !131
  %7 = tail call fastcc ptr @LZ4IO_openSrcFile(ptr noundef %2)
  %8 = icmp eq ptr %7, null
  br i1 %8, label %74, label %.split

.split:                                           ; preds = %4, %.split23
  %.020 = phi i64 [ %10, %.split23 ], [ 0, %4 ]
  %9 = tail call fastcc i64 @selectDecoder(ptr noundef nonnull byval(%struct.dRess_t) align 8 %1, ptr noundef %7, ptr noundef %6, ptr noundef %3)
  switch i64 %9, label %.split23 [
    i64 -1, label %.loopexit.loopexit
    i64 -2, label %.loopexit
  ]

.split23:                                         ; preds = %.split
  %10 = add i64 %.020, %9
  br label %.split

.loopexit.loopexit:                               ; preds = %.split
  br label %.loopexit

.loopexit:                                        ; preds = %.split, %.loopexit.loopexit
  %.122.ph = phi i32 [ 0, %.loopexit.loopexit ], [ 1, %.split ]
  %11 = tail call i32 @fclose(ptr noundef nonnull %7)
  %12 = getelementptr inbounds nuw i8, ptr %3, i64 64
  %13 = load i32, ptr %12, align 8, !tbaa !27
  %.not = icmp eq i32 %13, 0
  br i1 %.not, label %52, label %14

14:                                               ; preds = %.loopexit
  %15 = tail call i32 @remove(ptr noundef %2) #24
  %.not25 = icmp eq i32 %15, 0
  br i1 %.not25, label %52, label %16

16:                                               ; preds = %14
  %17 = load i32, ptr @g_displayLevel, align 4, !tbaa !4
  %18 = icmp sgt i32 %17, 0
  br i1 %18, label %19, label %.thread9

19:                                               ; preds = %16
  %20 = load ptr, ptr @stderr, align 8, !tbaa !8
  %21 = tail call i32 (ptr, ptr, ...) @fprintf(ptr noundef %20, ptr noundef nonnull @.str, i32 noundef 45) #26
  %22 = load i32, ptr @g_displayLevel, align 4, !tbaa !4
  %23 = icmp sgt i32 %22, 3
  br i1 %23, label %24, label %27

24:                                               ; preds = %19
  %25 = load ptr, ptr @stderr, align 8, !tbaa !8
  %26 = tail call i32 @fflush(ptr noundef %25)
  %.pr = load i32, ptr @g_displayLevel, align 4, !tbaa !4
  br label %27

27:                                               ; preds = %19, %24
  %28 = phi i32 [ %22, %19 ], [ %.pr, %24 ]
  %29 = icmp sgt i32 %28, 0
  br i1 %29, label %30, label %.thread9

30:                                               ; preds = %27
  %31 = load ptr, ptr @stderr, align 8, !tbaa !8
  %32 = tail call ptr @__errno_location() #31
  %33 = load i32, ptr %32, align 4, !tbaa !4
  %34 = tail call ptr @strerror(i32 noundef %33) #24
  %35 = tail call i32 (ptr, ptr, ...) @fprintf(ptr noundef %31, ptr noundef nonnull @.str.15, ptr noundef %2, ptr noundef %34) #26
  %36 = load i32, ptr @g_displayLevel, align 4, !tbaa !4
  %37 = icmp sgt i32 %36, 3
  br i1 %37, label %38, label %thread-pre-split

38:                                               ; preds = %30
  %39 = load ptr, ptr @stderr, align 8, !tbaa !8
  %40 = tail call i32 @fflush(ptr noundef %39)
  %.pr8.pre = load i32, ptr @g_displayLevel, align 4, !tbaa !4
  br label %thread-pre-split

thread-pre-split:                                 ; preds = %38, %30
  %41 = phi i32 [ %36, %30 ], [ %.pr8.pre, %38 ]
  %42 = icmp sgt i32 %41, 0
  br i1 %42, label %43, label %.thread9

43:                                               ; preds = %thread-pre-split
  %44 = load ptr, ptr @stderr, align 8, !tbaa !8
  %45 = tail call i64 @fwrite(ptr nonnull @.str.2, i64 2, i64 1, ptr %44) #27
  %46 = load i32, ptr @g_displayLevel, align 4, !tbaa !4
  %47 = icmp sgt i32 %46, 3
  br i1 %47, label %48, label %.thread9

48:                                               ; preds = %43
  %49 = load ptr, ptr @stderr, align 8, !tbaa !8
  %50 = tail call i32 @fflush(ptr noundef %49)
  br label %.thread9

.thread9:                                         ; preds = %27, %16, %43, %48, %thread-pre-split
  %51 = tail call i32 @fflush(ptr noundef null)
  tail call void @exit(i32 noundef 45) #28
  unreachable

52:                                               ; preds = %14, %.loopexit
  %53 = load i32, ptr @g_displayLevel, align 4, !tbaa !4
  %54 = icmp sgt i32 %53, 1
  br i1 %54, label %55, label %.thread11

55:                                               ; preds = %52
  %56 = load ptr, ptr @stderr, align 8, !tbaa !8
  %57 = tail call i32 (ptr, ptr, ...) @fprintf(ptr noundef %56, ptr noundef nonnull @.str.16, ptr noundef nonnull @.str.17) #26
  %58 = load i32, ptr @g_displayLevel, align 4, !tbaa !4
  %59 = icmp sgt i32 %58, 3
  br i1 %59, label %60, label %63

60:                                               ; preds = %55
  %61 = load ptr, ptr @stderr, align 8, !tbaa !8
  %62 = tail call i32 @fflush(ptr noundef %61)
  %.pr10 = load i32, ptr @g_displayLevel, align 4, !tbaa !4
  br label %63

63:                                               ; preds = %55, %60
  %64 = phi i32 [ %58, %55 ], [ %.pr10, %60 ]
  %65 = icmp sgt i32 %64, 1
  br i1 %65, label %66, label %.thread11

66:                                               ; preds = %63
  %67 = load ptr, ptr @stderr, align 8, !tbaa !8
  %68 = tail call i32 (ptr, ptr, ...) @fprintf(ptr noundef %67, ptr noundef nonnull @.str.84, ptr noundef %2, i64 noundef %.020) #26
  %69 = load i32, ptr @g_displayLevel, align 4, !tbaa !4
  %70 = icmp sgt i32 %69, 3
  br i1 %70, label %71, label %.thread11

71:                                               ; preds = %66
  %72 = load ptr, ptr @stderr, align 8, !tbaa !8
  %73 = tail call i32 @fflush(ptr noundef %72)
  br label %.thread11

.thread11:                                        ; preds = %52, %66, %71, %63
  store i64 %.020, ptr %0, align 8, !tbaa !32
  br label %74

74:                                               ; preds = %4, %.thread11
  %.0 = phi i32 [ %.122.ph, %.thread11 ], [ 1, %4 ]
  ret i32 %.0
}